; Function Attrs: mustprogress nofree norecurse nosync nounwind memory(readwrite, inaccessiblemem: none) uwtable
define void @_ZN7Archive17ConvertFileHeaderEP10FileHeader(ptr nocapture noundef nonnull readonly align 8 dereferenceable(57108) %0, ptr nocapture noundef %1) local_unnamed_addr #4 align 2 {
  %3 = getelementptr inbounds i8, ptr %1, i64 8460
  %4 = load i32, ptr %3, align 4
  %5 = icmp eq i32 %4, 2
  br i1 %5, label %.sink.split, label %10

.sink.split:                                      ; preds = %2
  %6 = getelementptr inbounds i8, ptr %1, i64 8441
  %7 = load i8, ptr %6, align 1
  %8 = trunc i8 %7 to i1
  %9 = getelementptr inbounds i8, ptr %1, i64 36
  %. = select i1 %8, i32 16, i32 32
  store i32 %., ptr %9, align 4
  br label %10

10:                                               ; preds = %.sink.split, %2
  %11 = getelementptr inbounds i8, ptr %1, i64 40
  %12 = getelementptr inbounds i8, ptr %0, i64 48840
  br label %13

13:                                               ; preds = %.thread17.thread19, %10
  %.0 = phi ptr [ %11, %10 ], [ %21, %.thread17.thread19 ]
  %14 = load i32, ptr %.0, align 4
  switch i32 %14, label %.thread17.thread19 [
    i32 0, label %22
    i32 92, label %15
    i32 47, label %.thread17.thread19.sink.split
  ]

15:                                               ; preds = %13
  %16 = load i32, ptr %12, align 8
  %17 = icmp eq i32 %16, 3
  br i1 %17, label %18, label %.thread17.thread19.sink.split

18:                                               ; preds = %15
  %19 = load i32, ptr %3, align 4
  %20 = icmp eq i32 %19, 0
  br i1 %20, label %.thread17.thread19.sink.split, label %.thread17.thread19

.thread17.thread19.sink.split:                    ; preds = %15, %13, %18
  %.sink22 = phi i32 [ 95, %18 ], [ %14, %13 ], [ 47, %15 ]
  store i32 %.sink22, ptr %.0, align 4
  br label %.thread17.thread19

.thread17.thread19:                               ; preds = %.thread17.thread19.sink.split, %13, %18
  %21 = getelementptr inbounds i8, ptr %.0, i64 4
  br label %13, !llvm.loop !6

22:                                               ; preds = %13
  ret void
}